; Function Attrs: nounwind uwtable
define hidden zeroext i1 @SDL_EGL_SwapBuffers(ptr noundef readonly captures(none) %0, ptr noundef %1) local_unnamed_addr #0 {
  %3 = alloca [32 x i8], align 16
  %4 = getelementptr inbounds nuw i8, ptr %0, i64 1672
  %5 = load ptr, ptr %4, align 8
  %6 = getelementptr inbounds nuw i8, ptr %5, i64 152
  %7 = load ptr, ptr %6, align 8
  %8 = getelementptr inbounds nuw i8, ptr %5, i64 16
  %9 = load ptr, ptr %8, align 8
  %10 = tail call i32 %7(ptr noundef %9, ptr noundef %1) #7
  %.not = icmp eq i32 %10, 0
  br i1 %.not, label %11, label %23

11:                                               ; preds = %2
  %12 = load ptr, ptr %4, align 8
  %13 = getelementptr inbounds nuw i8, ptr %12, i64 208
  %14 = load ptr, ptr %13, align 8
  %15 = tail call i32 %14() #7
  %switch.tableidx = add i32 %15, -12288
  %16 = icmp ult i32 %switch.tableidx, 15
  br i1 %16, label %switch.lookup, label %SDL_EGL_GetErrorName.exit.i

switch.lookup:                                    ; preds = %11
  %17 = zext nneg i32 %switch.tableidx to i64
  %switch.gep = getelementptr inbounds nuw [15 x ptr], ptr @switch.table.SDL_EGL_CreateSurface, i64 0, i64 %17
  %switch.load = load ptr, ptr %switch.gep, align 8
  br label %SDL_EGL_GetErrorName.exit.i

SDL_EGL_GetErrorName.exit.i:                      ; preds = %11, %switch.lookup
  %.0.i.i = phi ptr [ %switch.load, %switch.lookup ], [ @.str.62, %11 ]
  call void @llvm.lifetime.start.p0(i64 32, ptr nonnull %3) #7
  %18 = load i8, ptr %.0.i.i, align 1
  %19 = icmp eq i8 %18, 0
  br i1 %19, label %20, label %SDL_EGL_SetErrorEx.exit

20:                                               ; preds = %SDL_EGL_GetErrorName.exit.i
  %21 = call i32 (ptr, i64, ptr, ...) @SDL_snprintf_REAL(ptr noundef nonnull %3, i64 noundef 32, ptr noundef nonnull @.str, i32 noundef %15) #7
  br label %SDL_EGL_SetErrorEx.exit

SDL_EGL_SetErrorEx.exit:                          ; preds = %SDL_EGL_GetErrorName.exit.i, %20
  %.0.i = phi ptr [ %3, %20 ], [ %.0.i.i, %SDL_EGL_GetErrorName.exit.i ]
  %22 = call zeroext i1 (ptr, ...) @SDL_SetError_REAL(ptr noundef nonnull @.str.1, ptr noundef nonnull @.str.38, ptr noundef nonnull @.str.39, ptr noundef nonnull %.0.i) #7
  call void @llvm.lifetime.end.p0(i64 32, ptr nonnull %3) #7
  br label %23

23:                                               ; preds = %2, %SDL_EGL_SetErrorEx.exit
  %.0 = phi i1 [ %22, %SDL_EGL_SetErrorEx.exit ], [ true, %2 ]
  ret i1 %.0
}